target datalayout = "e-m:e-p270:32:32-p271:32:32-p272:64:64-i64:64-i128:128-f80:128-n8:16:32:64-S128"
target triple = "x86_64-pc-linux-gnu"

; Function Attrs: nounwind uwtable
define internal i32 @Extra_WordCountOnes(i32 noundef %0) #0 {
  %2 = alloca i32, align 4
  store i32 %0, ptr %2, align 4
  %3 = load i32, ptr %2, align 4
  %4 = and i32 %3, 1431655765
  %5 = load i32, ptr %2, align 4
  %6 = lshr i32 %5, 1
  %7 = and i32 %6, 1431655765
  %8 = add i32 %4, %7
  store i32 %8, ptr %2, align 4
  %9 = load i32, ptr %2, align 4
  %10 = and i32 %9, 858993459
  %11 = load i32, ptr %2, align 4
  %12 = lshr i32 %11, 2
  %13 = and i32 %12, 858993459
  %14 = add i32 %10, %13
  store i32 %14, ptr %2, align 4
  %15 = load i32, ptr %2, align 4
  %16 = and i32 %15, 252645135
  %17 = load i32, ptr %2, align 4
  %18 = lshr i32 %17, 4
  %19 = and i32 %18, 252645135
  %20 = add i32 %16, %19
  store i32 %20, ptr %2, align 4
  %21 = load i32, ptr %2, align 4
  %22 = and i32 %21, 16711935
  %23 = load i32, ptr %2, align 4
  %24 = lshr i32 %23, 8
  %25 = and i32 %24, 16711935
  %26 = add i32 %22, %25
  store i32 %26, ptr %2, align 4
  %27 = load i32, ptr %2, align 4
  %28 = and i32 %27, 65535
  %29 = load i32, ptr %2, align 4
  %30 = lshr i32 %29, 16
  %31 = add i32 %28, %30
  ret i32 %31
}

; Function Attrs: nounwind uwtable
define void @Abc_ResStartPart(i32 noundef %0, ptr noundef %1, i32 noundef %2) #0 {
  %4 = alloca i32, align 4
  %5 = alloca ptr, align 8
  %6 = alloca i32, align 4
  %7 = alloca i32, align 4
  %8 = alloca i32, align 4
  %9 = alloca i32, align 4
  %10 = alloca i32, align 4
  %11 = alloca i32, align 4
  store i32 %0, ptr %4, align 4
  store ptr %1, ptr %5, align 8
  store i32 %2, ptr %6, align 4
  store i32 0, ptr %10, align 4
  store i32 0, ptr %11, align 4
  %12 = load i32, ptr %4, align 4
  %13 = load i32, ptr %6, align 4
  %14 = sdiv i32 %12, %13
  store i32 %14, ptr %8, align 4
  %15 = load i32, ptr %4, align 4
  %16 = load i32, ptr %6, align 4
  %17 = srem i32 %15, %16
  store i32 %17, ptr %9, align 4
  store i32 0, ptr %7, align 4
  br label %18

18:                                               ; preds = %37, %3
  %19 = load i32, ptr %7, align 4
  %20 = load i32, ptr %9, align 4
  %21 = icmp slt i32 %19, %20
  br i1 %21, label %22, label %40

22:                                               ; preds = %18
  %23 = load i32, ptr %8, align 4
  %24 = add nsw i32 %23, 1
  %25 = shl i32 -1, %24
  %26 = xor i32 %25, -1
  %27 = load i32, ptr %10, align 4
  %28 = shl i32 %26, %27
  %29 = load ptr, ptr %5, align 8
  %30 = load i32, ptr %7, align 4
  %31 = sext i32 %30 to i64
  %32 = getelementptr inbounds i32, ptr %29, i64 %31
  store i32 %28, ptr %32, align 4
  %33 = load i32, ptr %8, align 4
  %34 = add nsw i32 %33, 1
  %35 = load i32, ptr %10, align 4
  %36 = add nsw i32 %35, %34
  store i32 %36, ptr %10, align 4
  br label %37

37:                                               ; preds = %22
  %38 = load i32, ptr %7, align 4
  %39 = add nsw i32 %38, 1
  store i32 %39, ptr %7, align 4
  br label %18, !llvm.loop !10

40:                                               ; preds = %18
  br label %41

41:                                               ; preds = %58, %40
  %42 = load i32, ptr %7, align 4
  %43 = load i32, ptr %6, align 4
  %44 = icmp slt i32 %42, %43
  br i1 %44, label %45, label %61

45:                                               ; preds = %41
  %46 = load i32, ptr %8, align 4
  %47 = shl i32 -1, %46
  %48 = xor i32 %47, -1
  %49 = load i32, ptr %10, align 4
  %50 = shl i32 %48, %49
  %51 = load ptr, ptr %5, align 8
  %52 = load i32, ptr %7, align 4
  %53 = sext i32 %52 to i64
  %54 = getelementptr inbounds i32, ptr %51, i64 %53
  store i32 %50, ptr %54, align 4
  %55 = load i32, ptr %8, align 4
  %56 = load i32, ptr %10, align 4
  %57 = add nsw i32 %56, %55
  store i32 %57, ptr %10, align 4
  br label %58

58:                                               ; preds = %45
  %59 = load i32, ptr %7, align 4
  %60 = add nsw i32 %59, 1
  store i32 %60, ptr %7, align 4
  br label %41, !llvm.loop !11

61:                                               ; preds = %41
  store i32 0, ptr %7, align 4
  br label %62

62:                                               ; preds = %75, %61
  %63 = load i32, ptr %7, align 4
  %64 = load i32, ptr %6, align 4
  %65 = icmp slt i32 %63, %64
  br i1 %65, label %66, label %78

66:                                               ; preds = %62
  %67 = load ptr, ptr %5, align 8
  %68 = load i32, ptr %7, align 4
  %69 = sext i32 %68 to i64
  %70 = getelementptr inbounds i32, ptr %67, i64 %69
  %71 = load i32, ptr %70, align 4
  %72 = call i32 @Extra_WordCountOnes(i32 noundef %71)
  %73 = load i32, ptr %11, align 4
  %74 = add nsw i32 %73, %72
  store i32 %74, ptr %11, align 4
  br label %75

75:                                               ; preds = %66
  %76 = load i32, ptr %7, align 4
  %77 = add nsw i32 %76, 1
  store i32 %77, ptr %7, align 4
  br label %62, !llvm.loop !12

78:                                               ; preds = %62
  ret void
}