; Function Attrs: nofree norecurse nosync nounwind memory(argmem: write) uwtable
define void @Abc_ResStartPart(i32 noundef %0, ptr noundef writeonly captures(none) %1, i32 noundef %2) local_unnamed_addr #2 {
  %4 = sdiv i32 %0, %2
  %5 = srem i32 %0, %2
  %6 = icmp sgt i32 %5, 0
  br i1 %6, label %.lr.ph, label %.preheader31

.lr.ph:                                           ; preds = %3
  %7 = add nsw i32 %4, 1
  %8 = shl nsw i32 -1, %7
  %9 = xor i32 %8, -1
  %wide.trip.count = zext nneg i32 %5 to i64
  br label %14

.preheader31:                                     ; preds = %14, %3
  %.028.lcssa = phi i32 [ 0, %3 ], [ %5, %14 ]
  %.027.lcssa = phi i32 [ 0, %3 ], [ %17, %14 ]
  %10 = icmp slt i32 %.028.lcssa, %2
  br i1 %10, label %.lr.ph37, label %.preheader

.lr.ph37:                                         ; preds = %.preheader31
  %11 = shl nsw i32 -1, %4
  %12 = xor i32 %11, -1
  %13 = zext nneg i32 %.028.lcssa to i64
  %wide.trip.count43 = zext i32 %2 to i64
  br label %18

14:                                               ; preds = %.lr.ph, %14
  %indvars.iv = phi i64 [ 0, %.lr.ph ], [ %indvars.iv.next, %14 ]
  %.02733 = phi i32 [ 0, %.lr.ph ], [ %17, %14 ]
  %15 = shl i32 %9, %.02733
  %16 = getelementptr inbounds nuw i32, ptr %1, i64 %indvars.iv
  store i32 %15, ptr %16, align 4
  %17 = add nsw i32 %.02733, %7
  %indvars.iv.next = add nuw nsw i64 %indvars.iv, 1
  %exitcond.not = icmp eq i64 %indvars.iv.next, %wide.trip.count
  br i1 %exitcond.not, label %.preheader31, label %14, !llvm.loop !10

.preheader:                                       ; preds = %18, %.preheader31
  ret void

18:                                               ; preds = %.lr.ph37, %18
  %indvars.iv40 = phi i64 [ %13, %.lr.ph37 ], [ %indvars.iv.next41, %18 ]
  %.136 = phi i32 [ %.027.lcssa, %.lr.ph37 ], [ %21, %18 ]
  %19 = shl i32 %12, %.136
  %20 = getelementptr inbounds nuw i32, ptr %1, i64 %indvars.iv40
  store i32 %19, ptr %20, align 4
  %21 = add nsw i32 %.136, %4
  %indvars.iv.next41 = add nuw nsw i64 %indvars.iv40, 1
  %exitcond44.not = icmp eq i64 %indvars.iv.next41, %wide.trip.count43
  br i1 %exitcond44.not, label %.preheader, label %18, !llvm.loop !11
}